target datalayout = "e-m:e-p270:32:32-p271:32:32-p272:64:64-i64:64-i128:128-f80:128-n8:16:32:64-S128"
target triple = "x86_64-pc-linux-gnu"

%struct.SDL_DriverXboxOne_Context = type { ptr, i16, i16, i32, i64, i8, i64, i8, i8, i8, i8, i8, i8, i8, i8, i8, i8, i8, i32, i64, i8, [64 x i8], ptr, i32 }
%struct.SDL_HIDAPI_Device = type { ptr, ptr, ptr, ptr, i16, i16, i16, ptr, %struct.SDL_GUID, i32, i32, i32, i32, i16, i16, i8, i32, i32, i32, ptr, ptr, ptr, ptr, %struct.SDL_AtomicInt, i32, ptr, i8, i8, i8, ptr, i32, ptr, ptr }
%struct.SDL_GUID = type { [16 x i8] }
%struct.SDL_AtomicInt = type { i32 }
%struct.SDL_Joystick = type { i32, ptr, ptr, ptr, %struct.SDL_GUID, i16, i64, i8, i8, i32, ptr, i32, ptr, i32, ptr, i32, ptr, i32, ptr, i32, i32, ptr, i16, i16, i64, i64, i16, i16, i64, i64, i8, i8, i8, i64, i8, i32, i32, i32, i8, i32, ptr, i32, ptr, [3 x [3 x float]], i64, ptr, ptr, i32, i32, ptr }

@.str.6 = private unnamed_addr constant [38 x i8] c"SDL_JOYSTICK_HIDAPI_XBOX_ONE_HOME_LED\00", align 1

; Function Attrs: nounwind uwtable
define internal zeroext i1 @HIDAPI_DriverXboxOne_OpenJoystick(ptr noundef %0, ptr noundef %1) #0 {
  %3 = alloca ptr, align 8
  %4 = alloca ptr, align 8
  %5 = alloca ptr, align 8
  store ptr %0, ptr %3, align 8
  store ptr %1, ptr %4, align 8
  call void @llvm.lifetime.start.p0(i64 8, ptr %5) #6
  %6 = load ptr, ptr %3, align 8
  %7 = getelementptr inbounds nuw %struct.SDL_HIDAPI_Device, ptr %6, i32 0, i32 20
  %8 = load ptr, ptr %7, align 8
  store ptr %8, ptr %5, align 8
  call void @SDL_AssertJoysticksLocked()
  %9 = load ptr, ptr %5, align 8
  %10 = getelementptr inbounds nuw %struct.SDL_DriverXboxOne_Context, ptr %9, i32 0, i32 14
  store i8 0, ptr %10, align 1
  %11 = load ptr, ptr %5, align 8
  %12 = getelementptr inbounds nuw %struct.SDL_DriverXboxOne_Context, ptr %11, i32 0, i32 15
  store i8 0, ptr %12, align 8
  %13 = load ptr, ptr %5, align 8
  %14 = getelementptr inbounds nuw %struct.SDL_DriverXboxOne_Context, ptr %13, i32 0, i32 16
  store i8 0, ptr %14, align 1
  %15 = load ptr, ptr %5, align 8
  %16 = getelementptr inbounds nuw %struct.SDL_DriverXboxOne_Context, ptr %15, i32 0, i32 17
  store i8 0, ptr %16, align 2
  %17 = load ptr, ptr %5, align 8
  %18 = getelementptr inbounds nuw %struct.SDL_DriverXboxOne_Context, ptr %17, i32 0, i32 18
  store i32 0, ptr %18, align 4
  %19 = load ptr, ptr %5, align 8
  %20 = getelementptr inbounds nuw %struct.SDL_DriverXboxOne_Context, ptr %19, i32 0, i32 19
  store i64 0, ptr %20, align 8
  %21 = load ptr, ptr %5, align 8
  %22 = getelementptr inbounds nuw %struct.SDL_DriverXboxOne_Context, ptr %21, i32 0, i32 20
  store i8 0, ptr %22, align 8
  %23 = load ptr, ptr %5, align 8
  %24 = getelementptr inbounds nuw %struct.SDL_DriverXboxOne_Context, ptr %23, i32 0, i32 21
  %25 = getelementptr inbounds [64 x i8], ptr %24, i64 0, i64 0
  call void @llvm.memset.p0.i64(ptr align 1 %25, i8 0, i64 64, i1 false)
  %26 = load ptr, ptr %4, align 8
  %27 = getelementptr inbounds nuw %struct.SDL_Joystick, ptr %26, i32 0, i32 15
  store i32 11, ptr %27, align 8
  %28 = load ptr, ptr %5, align 8
  %29 = getelementptr inbounds nuw %struct.SDL_DriverXboxOne_Context, ptr %28, i32 0, i32 12
  %30 = load i8, ptr %29, align 1, !range !3, !noundef !4
  %31 = trunc i8 %30 to i1
  br i1 %31, label %32, label %37

32:                                               ; preds = %2
  %33 = load ptr, ptr %4, align 8
  %34 = getelementptr inbounds nuw %struct.SDL_Joystick, ptr %33, i32 0, i32 15
  %35 = load i32, ptr %34, align 8
  %36 = add nsw i32 %35, 1
  store i32 %36, ptr %34, align 8
  br label %37

37:                                               ; preds = %32, %2
  %38 = load ptr, ptr %5, align 8
  %39 = getelementptr inbounds nuw %struct.SDL_DriverXboxOne_Context, ptr %38, i32 0, i32 9
  %40 = load i8, ptr %39, align 2, !range !3, !noundef !4
  %41 = trunc i8 %40 to i1
  br i1 %41, label %42, label %47

42:                                               ; preds = %37
  %43 = load ptr, ptr %4, align 8
  %44 = getelementptr inbounds nuw %struct.SDL_Joystick, ptr %43, i32 0, i32 15
  %45 = load i32, ptr %44, align 8
  %46 = add nsw i32 %45, 4
  store i32 %46, ptr %44, align 8
  br label %47

47:                                               ; preds = %42, %37
  %48 = load ptr, ptr %4, align 8
  %49 = getelementptr inbounds nuw %struct.SDL_Joystick, ptr %48, i32 0, i32 9
  store i32 6, ptr %49, align 4
  %50 = load ptr, ptr %4, align 8
  %51 = getelementptr inbounds nuw %struct.SDL_Joystick, ptr %50, i32 0, i32 13
  store i32 1, ptr %51, align 8
  %52 = load ptr, ptr %5, align 8
  %53 = call zeroext i1 @SDL_AddHintCallback_REAL(ptr noundef @.str.6, ptr noundef @SDL_HomeLEDHintChanged, ptr noundef %52)
  call void @llvm.lifetime.end.p0(i64 8, ptr %5) #6
  ret i1 true
}