; Function Attrs: nounwind uwtable
define internal noundef zeroext i1 @HIDAPI_DriverXboxOne_OpenJoystick(ptr noundef readonly captures(none) %0, ptr noundef writeonly captures(none) initializes((68, 72), (96, 100), (112, 116)) %1) #0 {
  %3 = getelementptr inbounds nuw i8, ptr %0, i64 112
  %4 = load ptr, ptr %3, align 8
  tail call void @SDL_AssertJoysticksLocked() #9
  %5 = getelementptr inbounds nuw i8, ptr %4, i64 47
  %6 = getelementptr inbounds nuw i8, ptr %4, i64 52
  %7 = getelementptr inbounds nuw i8, ptr %1, i64 112
  store i32 0, ptr %5, align 1
  tail call void @llvm.memset.p0.i64(ptr noundef nonnull align 4 dereferenceable(77) %6, i8 0, i64 77, i1 false)
  store i32 11, ptr %7, align 8
  %8 = getelementptr inbounds nuw i8, ptr %4, i64 45
  %9 = load i8, ptr %8, align 1, !range !3, !noundef !4
  %10 = trunc nuw i8 %9 to i1
  %spec.store.select = select i1 %10, i32 12, i32 11
  store i32 %spec.store.select, ptr %7, align 8
  %11 = getelementptr inbounds nuw i8, ptr %4, i64 42
  %12 = load i8, ptr %11, align 2, !range !3, !noundef !4
  %13 = trunc nuw i8 %12 to i1
  br i1 %13, label %14, label %16

14:                                               ; preds = %2
  %15 = add nuw nsw i32 %spec.store.select, 4
  store i32 %15, ptr %7, align 8
  br label %16

16:                                               ; preds = %14, %2
  %17 = getelementptr inbounds nuw i8, ptr %1, i64 68
  store i32 6, ptr %17, align 4
  %18 = getelementptr inbounds nuw i8, ptr %1, i64 96
  store i32 1, ptr %18, align 8
  %19 = tail call zeroext i1 @SDL_AddHintCallback_REAL(ptr noundef nonnull @.str.6, ptr noundef nonnull @SDL_HomeLEDHintChanged, ptr noundef nonnull %4) #9
  ret i1 true
}